target datalayout = "e-m:e-p270:32:32-p271:32:32-p272:64:64-i64:64-i128:128-f80:128-n8:16:32:64-S128"
target triple = "x86_64-pc-linux-gnu"

%struct.Abc_Ntk_t_ = type { i32, i32, ptr, ptr, ptr, ptr, ptr, ptr, ptr, ptr, ptr, ptr, ptr, [11 x i32], i32, i32, i32, i32, ptr, i32, ptr, ptr, i32, i32, i32, double, i32, %struct.Vec_Int_t_, ptr, ptr, ptr, ptr, ptr, float, i32, ptr, ptr, ptr, ptr, ptr, ptr, ptr, ptr, ptr, ptr, ptr, ptr, ptr, ptr, ptr, ptr, ptr, ptr, ptr, ptr, ptr, ptr }
%struct.Vec_Int_t_ = type { i32, i32, ptr }
%struct.Vec_Ptr_t_ = type { i32, i32, ptr }
%struct.Abc_Obj_t_ = type { ptr, ptr, i32, i32, %struct.Vec_Int_t_, %struct.Vec_Int_t_, %union.anon, %union.anon.0 }
%union.anon = type { ptr }
%union.anon.0 = type { ptr }

@.str.7 = private unnamed_addr constant [23 x i8] c".attrib white box seq\0A\00", align 1
@.str.8 = private unnamed_addr constant [24 x i8] c".attrib white box comb\0A\00", align 1
@.str.9 = private unnamed_addr constant [10 x i8] c".delay 1\0A\00", align 1
@.str.10 = private unnamed_addr constant [8 x i8] c" %s_in\0A\00", align 1
@.str.11 = private unnamed_addr constant [5 x i8] c" %s\0A\00", align 1
@.str.12 = private unnamed_addr constant [2 x i8] c"1\00", align 1
@.str.13 = private unnamed_addr constant [4 x i8] c" 1\0A\00", align 1
@.str.14 = private unnamed_addr constant [13 x i8] c" %s_in %s 1\0A\00", align 1
@.str.71 = private unnamed_addr constant [13 x i8] c"%d %d Pi 00\0A\00", align 1

; Function Attrs: inlinehint nounwind uwtable
define internal ptr @Abc_NtkCi(ptr noundef %0, i32 noundef %1) #4 {
  %3 = alloca ptr, align 8
  %4 = alloca i32, align 4
  store ptr %0, ptr %3, align 8, !tbaa !3
  store i32 %1, ptr %4, align 4, !tbaa !10
  %5 = load ptr, ptr %3, align 8, !tbaa !3
  %6 = getelementptr inbounds nuw %struct.Abc_Ntk_t_, ptr %5, i32 0, i32 8
  %7 = load ptr, ptr %6, align 8, !tbaa !118
  %8 = load i32, ptr %4, align 4, !tbaa !10
  %9 = call ptr @Vec_PtrEntry(ptr noundef %7, i32 noundef %8)
  ret ptr %9
}

; Function Attrs: inlinehint nounwind uwtable
define internal i32 @Abc_NtkCiNum(ptr noundef %0) #4 {
  %2 = alloca ptr, align 8
  store ptr %0, ptr %2, align 8, !tbaa !3
  %3 = load ptr, ptr %2, align 8, !tbaa !3
  %4 = getelementptr inbounds nuw %struct.Abc_Ntk_t_, ptr %3, i32 0, i32 8
  %5 = load ptr, ptr %4, align 8, !tbaa !118
  %6 = call i32 @Vec_PtrSize(ptr noundef %5)
  ret i32 %6
}

; Function Attrs: inlinehint nounwind uwtable
define internal i32 @Abc_ObjId(ptr noundef %0) #4 {
  %2 = alloca ptr, align 8
  store ptr %0, ptr %2, align 8, !tbaa !41
  %3 = load ptr, ptr %2, align 8, !tbaa !41
  %4 = getelementptr inbounds nuw %struct.Abc_Obj_t_, ptr %3, i32 0, i32 2
  %5 = load i32, ptr %4, align 8, !tbaa !70
  ret i32 %5
}

; Function Attrs: inlinehint nounwind uwtable
define internal ptr @Abc_ObjFanout0(ptr noundef %0) #4 {
  %2 = alloca ptr, align 8
  store ptr %0, ptr %2, align 8, !tbaa !41
  %3 = load ptr, ptr %2, align 8, !tbaa !41
  %4 = getelementptr inbounds nuw %struct.Abc_Obj_t_, ptr %3, i32 0, i32 0
  %5 = load ptr, ptr %4, align 8, !tbaa !57
  %6 = getelementptr inbounds nuw %struct.Abc_Ntk_t_, ptr %5, i32 0, i32 5
  %7 = load ptr, ptr %6, align 8, !tbaa !49
  %8 = getelementptr inbounds nuw %struct.Vec_Ptr_t_, ptr %7, i32 0, i32 2
  %9 = load ptr, ptr %8, align 8, !tbaa !38
  %10 = load ptr, ptr %2, align 8, !tbaa !41
  %11 = getelementptr inbounds nuw %struct.Abc_Obj_t_, ptr %10, i32 0, i32 5
  %12 = getelementptr inbounds nuw %struct.Vec_Int_t_, ptr %11, i32 0, i32 2
  %13 = load ptr, ptr %12, align 8, !tbaa !69
  %14 = getelementptr inbounds i32, ptr %13, i64 0
  %15 = load i32, ptr %14, align 4, !tbaa !10
  %16 = sext i32 %15 to i64
  %17 = getelementptr inbounds ptr, ptr %9, i64 %16
  %18 = load ptr, ptr %17, align 8, !tbaa !39
  ret ptr %18
}

; Function Attrs: inlinehint nounwind uwtable
define internal ptr @Abc_NtkPi(ptr noundef %0, i32 noundef %1) #4 {
  %3 = alloca ptr, align 8
  %4 = alloca i32, align 4
  store ptr %0, ptr %3, align 8, !tbaa !3
  store i32 %1, ptr %4, align 4, !tbaa !10
  %5 = load ptr, ptr %3, align 8, !tbaa !3
  %6 = getelementptr inbounds nuw %struct.Abc_Ntk_t_, ptr %5, i32 0, i32 6
  %7 = load ptr, ptr %6, align 8, !tbaa !60
  %8 = load i32, ptr %4, align 4, !tbaa !10
  %9 = call ptr @Vec_PtrEntry(ptr noundef %7, i32 noundef %8)
  ret ptr %9
}

; Function Attrs: inlinehint nounwind uwtable
define internal ptr @Vec_PtrEntry(ptr noundef %0, i32 noundef %1) #4 {
  %3 = alloca ptr, align 8
  %4 = alloca i32, align 4
  store ptr %0, ptr %3, align 8, !tbaa !35
  store i32 %1, ptr %4, align 4, !tbaa !10
  %5 = load ptr, ptr %3, align 8, !tbaa !35
  %6 = getelementptr inbounds nuw %struct.Vec_Ptr_t_, ptr %5, i32 0, i32 2
  %7 = load ptr, ptr %6, align 8, !tbaa !38
  %8 = load i32, ptr %4, align 4, !tbaa !10
  %9 = sext i32 %8 to i64
  %10 = getelementptr inbounds ptr, ptr %7, i64 %9
  %11 = load ptr, ptr %10, align 8, !tbaa !39
  ret ptr %11
}

; Function Attrs: inlinehint nounwind uwtable
define internal i32 @Vec_PtrSize(ptr noundef %0) #4 {
  %2 = alloca ptr, align 8
  store ptr %0, ptr %2, align 8, !tbaa !35
  %3 = load ptr, ptr %2, align 8, !tbaa !35
  %4 = getelementptr inbounds nuw %struct.Vec_Ptr_t_, ptr %3, i32 0, i32 1
  %5 = load i32, ptr %4, align 4, !tbaa !36
  ret i32 %5
}

; Function Attrs: inlinehint nounwind uwtable
define internal i32 @Abc_NtkPiNum(ptr noundef %0) #4 {
  %2 = alloca ptr, align 8
  store ptr %0, ptr %2, align 8, !tbaa !3
  %3 = load ptr, ptr %2, align 8, !tbaa !3
  %4 = getelementptr inbounds nuw %struct.Abc_Ntk_t_, ptr %3, i32 0, i32 6
  %5 = load ptr, ptr %4, align 8, !tbaa !60
  %6 = call i32 @Vec_PtrSize(ptr noundef %5)
  ret i32 %6
}

; Function Attrs: inlinehint nounwind uwtable
define internal ptr @Abc_ObjFanin0(ptr noundef %0) #4 {
  %2 = alloca ptr, align 8
  store ptr %0, ptr %2, align 8, !tbaa !41
  %3 = load ptr, ptr %2, align 8, !tbaa !41
  %4 = getelementptr inbounds nuw %struct.Abc_Obj_t_, ptr %3, i32 0, i32 0
  %5 = load ptr, ptr %4, align 8, !tbaa !57
  %6 = getelementptr inbounds nuw %struct.Abc_Ntk_t_, ptr %5, i32 0, i32 5
  %7 = load ptr, ptr %6, align 8, !tbaa !49
  %8 = getelementptr inbounds nuw %struct.Vec_Ptr_t_, ptr %7, i32 0, i32 2
  %9 = load ptr, ptr %8, align 8, !tbaa !38
  %10 = load ptr, ptr %2, align 8, !tbaa !41
  %11 = getelementptr inbounds nuw %struct.Abc_Obj_t_, ptr %10, i32 0, i32 4
  %12 = getelementptr inbounds nuw %struct.Vec_Int_t_, ptr %11, i32 0, i32 2
  %13 = load ptr, ptr %12, align 8, !tbaa !59
  %14 = getelementptr inbounds i32, ptr %13, i64 0
  %15 = load i32, ptr %14, align 4, !tbaa !10
  %16 = sext i32 %15 to i64
  %17 = getelementptr inbounds ptr, ptr %9, i64 %16
  %18 = load ptr, ptr %17, align 8, !tbaa !39
  ret ptr %18
}

; Function Attrs: nounwind uwtable
define internal void @Io_NtkEdgelistWritePis(ptr noundef %0, ptr noundef %1, i32 noundef %2) #0 {
  %4 = alloca ptr, align 8
  %5 = alloca ptr, align 8
  %6 = alloca i32, align 4
  %7 = alloca ptr, align 8
  %8 = alloca ptr, align 8
  %9 = alloca i32, align 4
  %10 = alloca i32, align 4
  %11 = alloca i32, align 4
  %12 = alloca i32, align 4
  store ptr %0, ptr %4, align 8, !tbaa !12
  store ptr %1, ptr %5, align 8, !tbaa !3
  store i32 %2, ptr %6, align 4, !tbaa !10
  call void @llvm.lifetime.start.p0(i64 8, ptr %7) #8
  call void @llvm.lifetime.start.p0(i64 8, ptr %8) #8
  call void @llvm.lifetime.start.p0(i64 4, ptr %9) #8
  call void @llvm.lifetime.start.p0(i64 4, ptr %10) #8
  call void @llvm.lifetime.start.p0(i64 4, ptr %11) #8
  call void @llvm.lifetime.start.p0(i64 4, ptr %12) #8
  store i32 7, ptr %9, align 4, !tbaa !10
  store i32 0, ptr %11, align 4, !tbaa !10
  %13 = load i32, ptr %6, align 4, !tbaa !10
  %14 = icmp ne i32 %13, 0
  br i1 %14, label %15, label %60

15:                                               ; preds = %3
  store i32 0, ptr %12, align 4, !tbaa !10
  br label %16

16:                                               ; preds = %56, %15
  %17 = load i32, ptr %12, align 4, !tbaa !10
  %18 = load ptr, ptr %5, align 8, !tbaa !3
  %19 = call i32 @Abc_NtkPiNum(ptr noundef %18)
  %20 = icmp slt i32 %17, %19
  br i1 %20, label %21, label %25

21:                                               ; preds = %16
  %22 = load ptr, ptr %5, align 8, !tbaa !3
  %23 = load i32, ptr %12, align 4, !tbaa !10
  %24 = call ptr @Abc_NtkPi(ptr noundef %22, i32 noundef %23)
  store ptr %24, ptr %7, align 8, !tbaa !41
  br label %25

25:                                               ; preds = %21, %16
  %26 = phi i1 [ false, %16 ], [ true, %21 ]
  br i1 %26, label %27, label %59

27:                                               ; preds = %25
  %28 = load ptr, ptr %7, align 8, !tbaa !41
  %29 = call ptr @Abc_ObjFanout0(ptr noundef %28)
  store ptr %29, ptr %8, align 8, !tbaa !41
  %30 = load ptr, ptr %8, align 8, !tbaa !41
  %31 = call ptr @Abc_ObjName(ptr noundef %30)
  %32 = call i64 @strlen(ptr noundef %31) #9
  %33 = add i64 %32, 1
  %34 = trunc i64 %33 to i32
  store i32 %34, ptr %10, align 4, !tbaa !10
  %35 = load i32, ptr %11, align 4, !tbaa !10
  %36 = icmp ne i32 %35, 0
  br i1 %36, label %37, label %44

37:                                               ; preds = %27
  %38 = load i32, ptr %9, align 4, !tbaa !10
  %39 = load i32, ptr %10, align 4, !tbaa !10
  %40 = add nsw i32 %38, %39
  %41 = add nsw i32 %40, 3
  %42 = icmp sgt i32 %41, 78
  br i1 %42, label %43, label %44

43:                                               ; preds = %37
  store i32 0, ptr %9, align 4, !tbaa !10
  store i32 0, ptr %11, align 4, !tbaa !10
  br label %44

44:                                               ; preds = %43, %37, %27
  %45 = load ptr, ptr %4, align 8, !tbaa !12
  %46 = load ptr, ptr %7, align 8, !tbaa !41
  %47 = call i32 @Abc_ObjId(ptr noundef %46)
  %48 = load ptr, ptr %8, align 8, !tbaa !41
  %49 = call i32 @Abc_ObjId(ptr noundef %48)
  %50 = call i32 (ptr, ptr, ...) @fprintf(ptr noundef %45, ptr noundef @.str.71, i32 noundef %47, i32 noundef %49) #8
  %51 = load i32, ptr %10, align 4, !tbaa !10
  %52 = load i32, ptr %9, align 4, !tbaa !10
  %53 = add nsw i32 %52, %51
  store i32 %53, ptr %9, align 4, !tbaa !10
  %54 = load i32, ptr %11, align 4, !tbaa !10
  %55 = add nsw i32 %54, 1
  store i32 %55, ptr %11, align 4, !tbaa !10
  br label %56

56:                                               ; preds = %44
  %57 = load i32, ptr %12, align 4, !tbaa !10
  %58 = add nsw i32 %57, 1
  store i32 %58, ptr %12, align 4, !tbaa !10
  br label %16, !llvm.loop !55

59:                                               ; preds = %25
  br label %105

60:                                               ; preds = %3
  store i32 0, ptr %12, align 4, !tbaa !10
  br label %61

61:                                               ; preds = %101, %60
  %62 = load i32, ptr %12, align 4, !tbaa !10
  %63 = load ptr, ptr %5, align 8, !tbaa !3
  %64 = call i32 @Abc_NtkCiNum(ptr noundef %63)
  %65 = icmp slt i32 %62, %64
  br i1 %65, label %66, label %70

66:                                               ; preds = %61
  %67 = load ptr, ptr %5, align 8, !tbaa !3
  %68 = load i32, ptr %12, align 4, !tbaa !10
  %69 = call ptr @Abc_NtkCi(ptr noundef %67, i32 noundef %68)
  store ptr %69, ptr %7, align 8, !tbaa !41
  br label %70

70:                                               ; preds = %66, %61
  %71 = phi i1 [ false, %61 ], [ true, %66 ]
  br i1 %71, label %72, label %104

72:                                               ; preds = %70
  %73 = load ptr, ptr %7, align 8, !tbaa !41
  %74 = call ptr @Abc_ObjFanout0(ptr noundef %73)
  store ptr %74, ptr %8, align 8, !tbaa !41
  %75 = load ptr, ptr %8, align 8, !tbaa !41
  %76 = call ptr @Abc_ObjName(ptr noundef %75)
  %77 = call i64 @strlen(ptr noundef %76) #9
  %78 = add i64 %77, 1
  %79 = trunc i64 %78 to i32
  store i32 %79, ptr %10, align 4, !tbaa !10
  %80 = load i32, ptr %11, align 4, !tbaa !10
  %81 = icmp ne i32 %80, 0
  br i1 %81, label %82, label %89

82:                                               ; preds = %72
  %83 = load i32, ptr %9, align 4, !tbaa !10
  %84 = load i32, ptr %10, align 4, !tbaa !10
  %85 = add nsw i32 %83, %84
  %86 = add nsw i32 %85, 3
  %87 = icmp sgt i32 %86, 78
  br i1 %87, label %88, label %89

88:                                               ; preds = %82
  store i32 0, ptr %9, align 4, !tbaa !10
  store i32 0, ptr %11, align 4, !tbaa !10
  br label %89

89:                                               ; preds = %88, %82, %72
  %90 = load ptr, ptr %4, align 8, !tbaa !12
  %91 = load ptr, ptr %7, align 8, !tbaa !41
  %92 = call i32 @Abc_ObjId(ptr noundef %91)
  %93 = load ptr, ptr %8, align 8, !tbaa !41
  %94 = call i32 @Abc_ObjId(ptr noundef %93)
  %95 = call i32 (ptr, ptr, ...) @fprintf(ptr noundef %90, ptr noundef @.str.71, i32 noundef %92, i32 noundef %94) #8
  %96 = load i32, ptr %10, align 4, !tbaa !10
  %97 = load i32, ptr %9, align 4, !tbaa !10
  %98 = add nsw i32 %97, %96
  store i32 %98, ptr %9, align 4, !tbaa !10
  %99 = load i32, ptr %11, align 4, !tbaa !10
  %100 = add nsw i32 %99, 1
  store i32 %100, ptr %11, align 4, !tbaa !10
  br label %101

101:                                              ; preds = %89
  %102 = load i32, ptr %12, align 4, !tbaa !10
  %103 = add nsw i32 %102, 1
  store i32 %103, ptr %12, align 4, !tbaa !10
  br label %61, !llvm.loop !56

104:                                              ; preds = %70
  br label %105

105:                                              ; preds = %104, %59
  call void @llvm.lifetime.end.p0(i64 4, ptr %12) #8
  call void @llvm.lifetime.end.p0(i64 4, ptr %11) #8
  call void @llvm.lifetime.end.p0(i64 4, ptr %10) #8
  call void @llvm.lifetime.end.p0(i64 4, ptr %9) #8
  call void @llvm.lifetime.end.p0(i64 8, ptr %8) #8
  call void @llvm.lifetime.end.p0(i64 8, ptr %7) #8
  ret void
}

; Function Attrs: inlinehint nounwind uwtable
define internal ptr @Abc_NtkPo(ptr noundef %0, i32 noundef %1) #4 {
  %3 = alloca ptr, align 8
  %4 = alloca i32, align 4
  store ptr %0, ptr %3, align 8, !tbaa !3
  store i32 %1, ptr %4, align 4, !tbaa !10
  %5 = load ptr, ptr %3, align 8, !tbaa !3
  %6 = getelementptr inbounds nuw %struct.Abc_Ntk_t_, ptr %5, i32 0, i32 7
  %7 = load ptr, ptr %6, align 8, !tbaa !54
  %8 = load i32, ptr %4, align 4, !tbaa !10
  %9 = call ptr @Vec_PtrEntry(ptr noundef %7, i32 noundef %8)
  ret ptr %9
}

; Function Attrs: inlinehint nounwind uwtable
define internal i32 @Abc_NtkPoNum(ptr noundef %0) #4 {
  %2 = alloca ptr, align 8
  store ptr %0, ptr %2, align 8, !tbaa !3
  %3 = load ptr, ptr %2, align 8, !tbaa !3
  %4 = getelementptr inbounds nuw %struct.Abc_Ntk_t_, ptr %3, i32 0, i32 7
  %5 = load ptr, ptr %4, align 8, !tbaa !54
  %6 = call i32 @Vec_PtrSize(ptr noundef %5)
  ret i32 %6
}

; Function Attrs: nounwind uwtable
define void @Io_NtkEdgelistWriteConvertedBox(ptr noundef %0, ptr noundef %1, i32 noundef %2) #0 {
  %4 = alloca ptr, align 8
  %5 = alloca ptr, align 8
  %6 = alloca i32, align 4
  %7 = alloca ptr, align 8
  %8 = alloca i32, align 4
  %9 = alloca i32, align 4
  store ptr %0, ptr %4, align 8, !tbaa !12
  store ptr %1, ptr %5, align 8, !tbaa !3
  store i32 %2, ptr %6, align 4, !tbaa !10
  call void @llvm.lifetime.start.p0(i64 8, ptr %7) #8
  call void @llvm.lifetime.start.p0(i64 4, ptr %8) #8
  call void @llvm.lifetime.start.p0(i64 4, ptr %9) #8
  %10 = load i32, ptr %6, align 4, !tbaa !10
  %11 = icmp ne i32 %10, 0
  br i1 %11, label %12, label %15

12:                                               ; preds = %3
  %13 = load ptr, ptr %4, align 8, !tbaa !12
  %14 = call i32 (ptr, ptr, ...) @fprintf(ptr noundef %13, ptr noundef @.str.7) #8
  br label %20

15:                                               ; preds = %3
  %16 = load ptr, ptr %4, align 8, !tbaa !12
  %17 = call i32 (ptr, ptr, ...) @fprintf(ptr noundef %16, ptr noundef @.str.8) #8
  %18 = load ptr, ptr %4, align 8, !tbaa !12
  %19 = call i32 (ptr, ptr, ...) @fprintf(ptr noundef %18, ptr noundef @.str.9) #8
  br label %20

20:                                               ; preds = %15, %12
  store i32 0, ptr %8, align 4, !tbaa !10
  br label %21

21:                                               ; preds = %76, %20
  %22 = load i32, ptr %8, align 4, !tbaa !10
  %23 = load ptr, ptr %5, align 8, !tbaa !3
  %24 = call i32 @Abc_NtkPoNum(ptr noundef %23)
  %25 = icmp slt i32 %22, %24
  br i1 %25, label %26, label %30

26:                                               ; preds = %21
  %27 = load ptr, ptr %5, align 8, !tbaa !3
  %28 = load i32, ptr %8, align 4, !tbaa !10
  %29 = call ptr @Abc_NtkPo(ptr noundef %27, i32 noundef %28)
  store ptr %29, ptr %7, align 8, !tbaa !41
  br label %30

30:                                               ; preds = %26, %21
  %31 = phi i1 [ false, %21 ], [ true, %26 ]
  br i1 %31, label %32, label %79

32:                                               ; preds = %30
  %33 = load ptr, ptr %4, align 8, !tbaa !12
  %34 = load ptr, ptr %5, align 8, !tbaa !3
  call void @Io_NtkEdgelistWritePis(ptr noundef %33, ptr noundef %34, i32 noundef 1)
  %35 = load i32, ptr %6, align 4, !tbaa !10
  %36 = icmp ne i32 %35, 0
  br i1 %36, label %37, label %43

37:                                               ; preds = %32
  %38 = load ptr, ptr %4, align 8, !tbaa !12
  %39 = load ptr, ptr %7, align 8, !tbaa !41
  %40 = call ptr @Abc_ObjFanin0(ptr noundef %39)
  %41 = call ptr @Abc_ObjName(ptr noundef %40)
  %42 = call i32 (ptr, ptr, ...) @fprintf(ptr noundef %38, ptr noundef @.str.10, ptr noundef %41) #8
  br label %49

43:                                               ; preds = %32
  %44 = load ptr, ptr %4, align 8, !tbaa !12
  %45 = load ptr, ptr %7, align 8, !tbaa !41
  %46 = call ptr @Abc_ObjFanin0(ptr noundef %45)
  %47 = call ptr @Abc_ObjName(ptr noundef %46)
  %48 = call i32 (ptr, ptr, ...) @fprintf(ptr noundef %44, ptr noundef @.str.11, ptr noundef %47) #8
  br label %49

49:                                               ; preds = %43, %37
  store i32 0, ptr %9, align 4, !tbaa !10
  br label %50

50:                                               ; preds = %58, %49
  %51 = load i32, ptr %9, align 4, !tbaa !10
  %52 = load ptr, ptr %5, align 8, !tbaa !3
  %53 = call i32 @Abc_NtkPiNum(ptr noundef %52)
  %54 = icmp slt i32 %51, %53
  br i1 %54, label %55, label %61

55:                                               ; preds = %50
  %56 = load ptr, ptr %4, align 8, !tbaa !12
  %57 = call i32 (ptr, ptr, ...) @fprintf(ptr noundef %56, ptr noundef @.str.12) #8
  br label %58

58:                                               ; preds = %55
  %59 = load i32, ptr %9, align 4, !tbaa !10
  %60 = add nsw i32 %59, 1
  store i32 %60, ptr %9, align 4, !tbaa !10
  br label %50, !llvm.loop !52

61:                                               ; preds = %50
  %62 = load ptr, ptr %4, align 8, !tbaa !12
  %63 = call i32 (ptr, ptr, ...) @fprintf(ptr noundef %62, ptr noundef @.str.13) #8
  %64 = load i32, ptr %6, align 4, !tbaa !10
  %65 = icmp ne i32 %64, 0
  br i1 %65, label %66, label %75

66:                                               ; preds = %61
  %67 = load ptr, ptr %4, align 8, !tbaa !12
  %68 = load ptr, ptr %7, align 8, !tbaa !41
  %69 = call ptr @Abc_ObjFanin0(ptr noundef %68)
  %70 = call ptr @Abc_ObjName(ptr noundef %69)
  %71 = load ptr, ptr %7, align 8, !tbaa !41
  %72 = call ptr @Abc_ObjFanin0(ptr noundef %71)
  %73 = call ptr @Abc_ObjName(ptr noundef %72)
  %74 = call i32 (ptr, ptr, ...) @fprintf(ptr noundef %67, ptr noundef @.str.14, ptr noundef %70, ptr noundef %73) #8
  br label %75

75:                                               ; preds = %66, %61
  br label %76

76:                                               ; preds = %75
  %77 = load i32, ptr %8, align 4, !tbaa !10
  %78 = add nsw i32 %77, 1
  store i32 %78, ptr %8, align 4, !tbaa !10
  br label %21, !llvm.loop !53

79:                                               ; preds = %30
  call void @llvm.lifetime.end.p0(i64 4, ptr %9) #8
  call void @llvm.lifetime.end.p0(i64 4, ptr %8) #8
  call void @llvm.lifetime.end.p0(i64 8, ptr %7) #8
  ret void
}