; Function Attrs: nounwind uwtable
define void @Io_NtkEdgelistWriteConvertedBox(ptr noundef captures(none) %0, ptr noundef readonly captures(none) %1, i32 noundef %2) local_unnamed_addr #0 {
  %.not = icmp eq i32 %2, 0
  br i1 %.not, label %6, label %4

4:                                                ; preds = %3
  %5 = tail call i64 @fwrite(ptr nonnull @.str.7, i64 22, i64 1, ptr %0)
  br label %9

6:                                                ; preds = %3
  %7 = tail call i64 @fwrite(ptr nonnull @.str.8, i64 23, i64 1, ptr %0)
  %8 = tail call i64 @fwrite(ptr nonnull @.str.9, i64 9, i64 1, ptr %0)
  br label %9

9:                                                ; preds = %6, %4
  %10 = getelementptr i8, ptr %1, i64 48
  %.val2538 = load ptr, ptr %10, align 8, !tbaa !62
  %11 = getelementptr i8, ptr %.val2538, i64 4
  %.val25.val39 = load i32, ptr %11, align 4, !tbaa !31
  %12 = icmp sgt i32 %.val25.val39, 0
  br i1 %12, label %.lr.ph43, label %.critedge

.lr.ph43:                                         ; preds = %9
  %13 = getelementptr i8, ptr %1, i64 40
  %.str.11..str.10 = select i1 %.not, ptr @.str.11, ptr @.str.10
  br label %14

14:                                               ; preds = %.lr.ph43, %65
  %indvars.iv = phi i64 [ 0, %.lr.ph43 ], [ %indvars.iv.next, %65 ]
  %.val2541 = phi ptr [ %.val2538, %.lr.ph43 ], [ %.val25, %65 ]
  %15 = getelementptr i8, ptr %.val2541, i64 8
  %.val26.val = load ptr, ptr %15, align 8, !tbaa !33
  %16 = getelementptr inbounds nuw ptr, ptr %.val26.val, i64 %indvars.iv
  %17 = load ptr, ptr %16, align 8, !tbaa !34
  %.val58.i = load ptr, ptr %13, align 8, !tbaa !39
  %18 = getelementptr i8, ptr %.val58.i, i64 4
  %.val.val59.i = load i32, ptr %18, align 4, !tbaa !31
  %19 = icmp sgt i32 %.val.val59.i, 0
  br i1 %19, label %.lr.ph.i, label %Io_NtkEdgelistWritePis.exit

.lr.ph.i:                                         ; preds = %14, %.lr.ph.i
  %indvars.iv.i = phi i64 [ %indvars.iv.next.i, %.lr.ph.i ], [ 0, %14 ]
  %.val63.i = phi ptr [ %.val.i, %.lr.ph.i ], [ %.val58.i, %14 ]
  %20 = getelementptr i8, ptr %.val63.i, i64 8
  %.val45.val.i = load ptr, ptr %20, align 8, !tbaa !33
  %21 = getelementptr inbounds nuw ptr, ptr %.val45.val.i, i64 %indvars.iv.i
  %22 = load ptr, ptr %21, align 8, !tbaa !34
  %.val46.i = load ptr, ptr %22, align 8, !tbaa !41
  %23 = getelementptr i8, ptr %22, i64 48
  %.val47.i = load ptr, ptr %23, align 8, !tbaa !44
  %24 = getelementptr i8, ptr %.val46.i, i64 32
  %.val46.val.i = load ptr, ptr %24, align 8, !tbaa !45
  %.val47.val.i = load i32, ptr %.val47.i, align 4, !tbaa !26
  %25 = getelementptr i8, ptr %.val46.val.i, i64 8
  %.val46.val.val.i = load ptr, ptr %25, align 8, !tbaa !33
  %26 = sext i32 %.val47.val.i to i64
  %27 = getelementptr inbounds ptr, ptr %.val46.val.val.i, i64 %26
  %28 = load ptr, ptr %27, align 8, !tbaa !34
  %29 = tail call ptr @Abc_ObjName(ptr noundef %28) #11
  %30 = getelementptr i8, ptr %22, i64 16
  %.val50.i = load i32, ptr %30, align 8, !tbaa !46
  %31 = getelementptr i8, ptr %28, i64 16
  %.val51.i = load i32, ptr %31, align 8, !tbaa !46
  %32 = tail call i32 (ptr, ptr, ...) @fprintf(ptr noundef %0, ptr noundef nonnull @.str.71, i32 noundef %.val50.i, i32 noundef %.val51.i) #11
  %indvars.iv.next.i = add nuw nsw i64 %indvars.iv.i, 1
  %.val.i = load ptr, ptr %13, align 8, !tbaa !39
  %33 = getelementptr i8, ptr %.val.i, i64 4
  %.val.val.i = load i32, ptr %33, align 4, !tbaa !31
  %34 = sext i32 %.val.val.i to i64
  %35 = icmp slt i64 %indvars.iv.next.i, %34
  br i1 %35, label %.lr.ph.i, label %Io_NtkEdgelistWritePis.exit, !llvm.loop !47

Io_NtkEdgelistWritePis.exit:                      ; preds = %.lr.ph.i, %14
  %.val29 = load ptr, ptr %17, align 8, !tbaa !41
  %36 = getelementptr i8, ptr %17, i64 32
  %.val30 = load ptr, ptr %36, align 8, !tbaa !51
  %37 = getelementptr i8, ptr %.val29, i64 32
  %.val29.val = load ptr, ptr %37, align 8, !tbaa !45
  %.val30.val = load i32, ptr %.val30, align 4, !tbaa !26
  %38 = getelementptr i8, ptr %.val29.val, i64 8
  %.val29.val.val = load ptr, ptr %38, align 8, !tbaa !33
  %39 = sext i32 %.val30.val to i64
  %40 = getelementptr inbounds ptr, ptr %.val29.val.val, i64 %39
  %41 = load ptr, ptr %40, align 8, !tbaa !34
  %42 = tail call ptr @Abc_ObjName(ptr noundef %41) #11
  %43 = tail call i32 (ptr, ptr, ...) @fprintf(ptr noundef %0, ptr noundef nonnull %.str.11..str.10, ptr noundef %42) #11
  %.val35 = load ptr, ptr %13, align 8, !tbaa !39
  %44 = getelementptr i8, ptr %.val35, i64 4
  %.val.val36 = load i32, ptr %44, align 4, !tbaa !31
  %45 = icmp sgt i32 %.val.val36, 0
  br i1 %45, label %.lr.ph, label %._crit_edge

.lr.ph:                                           ; preds = %Io_NtkEdgelistWritePis.exit, %.lr.ph
  %.037 = phi i32 [ %46, %.lr.ph ], [ 0, %Io_NtkEdgelistWritePis.exit ]
  %fputc = tail call i32 @fputc(i32 49, ptr %0)
  %46 = add nuw nsw i32 %.037, 1
  %.val = load ptr, ptr %13, align 8, !tbaa !39
  %47 = getelementptr i8, ptr %.val, i64 4
  %.val.val = load i32, ptr %47, align 4, !tbaa !31
  %48 = icmp slt i32 %46, %.val.val
  br i1 %48, label %.lr.ph, label %._crit_edge, !llvm.loop !66

._crit_edge:                                      ; preds = %.lr.ph, %Io_NtkEdgelistWritePis.exit
  %49 = tail call i64 @fwrite(ptr nonnull @.str.13, i64 3, i64 1, ptr %0)
  br i1 %.not, label %65, label %50

50:                                               ; preds = %._crit_edge
  %.val31 = load ptr, ptr %17, align 8, !tbaa !41
  %51 = getelementptr i8, ptr %17, i64 32
  %.val32 = load ptr, ptr %51, align 8, !tbaa !51
  %52 = getelementptr i8, ptr %.val31, i64 32
  %.val31.val = load ptr, ptr %52, align 8, !tbaa !45
  %.val32.val = load i32, ptr %.val32, align 4, !tbaa !26
  %53 = getelementptr i8, ptr %.val31.val, i64 8
  %.val31.val.val = load ptr, ptr %53, align 8, !tbaa !33
  %54 = sext i32 %.val32.val to i64
  %55 = getelementptr inbounds ptr, ptr %.val31.val.val, i64 %54
  %56 = load ptr, ptr %55, align 8, !tbaa !34
  %57 = tail call ptr @Abc_ObjName(ptr noundef %56) #11
  %.val33 = load ptr, ptr %17, align 8, !tbaa !41
  %.val34 = load ptr, ptr %51, align 8, !tbaa !51
  %58 = getelementptr i8, ptr %.val33, i64 32
  %.val33.val = load ptr, ptr %58, align 8, !tbaa !45
  %.val34.val = load i32, ptr %.val34, align 4, !tbaa !26
  %59 = getelementptr i8, ptr %.val33.val, i64 8
  %.val33.val.val = load ptr, ptr %59, align 8, !tbaa !33
  %60 = sext i32 %.val34.val to i64
  %61 = getelementptr inbounds ptr, ptr %.val33.val.val, i64 %60
  %62 = load ptr, ptr %61, align 8, !tbaa !34
  %63 = tail call ptr @Abc_ObjName(ptr noundef %62) #11
  %64 = tail call i32 (ptr, ptr, ...) @fprintf(ptr noundef %0, ptr noundef nonnull @.str.14, ptr noundef %57, ptr noundef %63) #11
  br label %65

65:                                               ; preds = %._crit_edge, %50
  %indvars.iv.next = add nuw nsw i64 %indvars.iv, 1
  %.val25 = load ptr, ptr %10, align 8, !tbaa !62
  %66 = getelementptr i8, ptr %.val25, i64 4
  %.val25.val = load i32, ptr %66, align 4, !tbaa !31
  %67 = sext i32 %.val25.val to i64
  %68 = icmp slt i64 %indvars.iv.next, %67
  br i1 %68, label %14, label %.critedge, !llvm.loop !67

.critedge:                                        ; preds = %65, %9
  ret void
}